; Function Attrs: nounwind uwtable
define noalias ptr @l_Array_foldlMUnsafe_fold___at_Lean_Compiler_LCNF_init___elambda__1___spec__1(ptr noundef readonly captures(none) %0, i64 noundef %1, i64 noundef %2, ptr noundef %3, ptr readnone captures(none) %4, ptr readnone captures(none) %5, ptr noundef %6, ptr noundef %7, ptr noundef %8) local_unnamed_addr #0 {
  %.not54 = icmp eq i64 %1, %2
  br i1 %.not54, label %._crit_edge, label %.lr.ph

.lr.ph:                                           ; preds = %9
  %10 = getelementptr inbounds nuw i8, ptr %0, i64 24
  br label %11

11:                                               ; preds = %.lr.ph, %64
  %.02757 = phi i64 [ %1, %.lr.ph ], [ %65, %64 ]
  %.02956 = phi ptr [ %3, %.lr.ph ], [ %33, %64 ]
  %.03155 = phi ptr [ %8, %.lr.ph ], [ %43, %64 ]
  %12 = ptrtoint ptr %.02956 to i64
  %13 = and i64 %12, 1
  %.not50 = icmp eq i64 %13, 0
  br i1 %.not50, label %14, label %lean_dec.exit

14:                                               ; preds = %11
  %15 = load i32, ptr %.02956, align 4, !tbaa !4
  %16 = icmp sgt i32 %15, 1
  br i1 %16, label %17, label %19, !prof !9

17:                                               ; preds = %14
  %18 = add nsw i32 %15, -1
  store i32 %18, ptr %.02956, align 4, !tbaa !4
  br label %lean_dec.exit

19:                                               ; preds = %14
  %.not.i35 = icmp eq i32 %15, 0
  br i1 %.not.i35, label %lean_dec.exit, label %20

20:                                               ; preds = %19
  tail call void @lean_dec_ref_cold(ptr noundef nonnull %.02956) #5
  br label %lean_dec.exit

lean_dec.exit:                                    ; preds = %20, %19, %17, %11
  %21 = getelementptr inbounds nuw [0 x ptr], ptr %10, i64 0, i64 %.02757
  %22 = load ptr, ptr %21, align 8, !tbaa !10
  %23 = ptrtoint ptr %22 to i64
  %24 = and i64 %23, 1
  %.not.i37 = icmp eq i64 %24, 0
  br i1 %.not.i37, label %25, label %lean_array_uget.exit

25:                                               ; preds = %lean_dec.exit
  %.val.i.i = load i32, ptr %22, align 4, !tbaa !4
  %26 = icmp sgt i32 %.val.i.i, 0
  br i1 %26, label %27, label %29, !prof !9

27:                                               ; preds = %25
  %28 = add nuw i32 %.val.i.i, 1
  store i32 %28, ptr %22, align 4, !tbaa !4
  br label %lean_array_uget.exit

29:                                               ; preds = %25
  %.not.i.i = icmp eq i32 %.val.i.i, 0
  br i1 %.not.i.i, label %lean_array_uget.exit, label %30

30:                                               ; preds = %29
  tail call void @lean_inc_ref_cold(ptr noundef nonnull %22) #5
  br label %lean_array_uget.exit

lean_array_uget.exit:                             ; preds = %lean_dec.exit, %27, %29, %30
  %31 = tail call ptr @l_Lean_Compiler_LCNF_Decl_saveBase(ptr noundef %22, ptr noundef %6, ptr noundef %7, ptr noundef %.03155) #5
  %32 = getelementptr inbounds nuw i8, ptr %31, i64 8
  %33 = load ptr, ptr %32, align 8, !tbaa !10
  %34 = ptrtoint ptr %33 to i64
  %35 = and i64 %34, 1
  %.not51 = icmp eq i64 %35, 0
  br i1 %.not51, label %36, label %lean_inc.exit

36:                                               ; preds = %lean_array_uget.exit
  %.val.i = load i32, ptr %33, align 4, !tbaa !4
  %37 = icmp sgt i32 %.val.i, 0
  br i1 %37, label %38, label %40, !prof !9

38:                                               ; preds = %36
  %39 = add nuw i32 %.val.i, 1
  store i32 %39, ptr %33, align 4, !tbaa !4
  br label %lean_inc.exit

40:                                               ; preds = %36
  %.not.i38 = icmp eq i32 %.val.i, 0
  br i1 %.not.i38, label %lean_inc.exit, label %41

41:                                               ; preds = %40
  tail call void @lean_inc_ref_cold(ptr noundef nonnull %33) #5
  br label %lean_inc.exit

lean_inc.exit:                                    ; preds = %41, %40, %38, %lean_array_uget.exit
  %42 = getelementptr inbounds nuw i8, ptr %31, i64 16
  %43 = load ptr, ptr %42, align 8, !tbaa !10
  %44 = ptrtoint ptr %43 to i64
  %45 = and i64 %44, 1
  %.not52 = icmp eq i64 %45, 0
  br i1 %.not52, label %46, label %lean_inc.exit34

46:                                               ; preds = %lean_inc.exit
  %.val.i39 = load i32, ptr %43, align 4, !tbaa !4
  %47 = icmp sgt i32 %.val.i39, 0
  br i1 %47, label %48, label %50, !prof !9

48:                                               ; preds = %46
  %49 = add nuw i32 %.val.i39, 1
  store i32 %49, ptr %43, align 4, !tbaa !4
  br label %lean_inc.exit34

50:                                               ; preds = %46
  %.not.i40 = icmp eq i32 %.val.i39, 0
  br i1 %.not.i40, label %lean_inc.exit34, label %51

51:                                               ; preds = %50
  tail call void @lean_inc_ref_cold(ptr noundef nonnull %43) #5
  br label %lean_inc.exit34

lean_inc.exit34:                                  ; preds = %51, %50, %48, %lean_inc.exit
  %52 = ptrtoint ptr %31 to i64
  %53 = and i64 %52, 1
  %.not53 = icmp eq i64 %53, 0
  br i1 %.not53, label %54, label %64

54:                                               ; preds = %lean_inc.exit34
  %55 = load i32, ptr %31, align 4, !tbaa !4
  %56 = icmp sgt i32 %55, 1
  br i1 %56, label %57, label %59, !prof !9

57:                                               ; preds = %54
  %58 = add nsw i32 %55, -1
  store i32 %58, ptr %31, align 4, !tbaa !4
  br label %64

59:                                               ; preds = %54
  %.not.i = icmp eq i32 %55, 0
  br i1 %.not.i, label %64, label %60

60:                                               ; preds = %59
  tail call void @lean_dec_ref_cold(ptr noundef nonnull %31) #5
  br label %64

._crit_edge:                                      ; preds = %64, %9
  %.031.lcssa = phi ptr [ %8, %9 ], [ %43, %64 ]
  %.029.lcssa = phi ptr [ %3, %9 ], [ %33, %64 ]
  tail call void @lean_inc_heartbeat() #5
  %61 = tail call noalias ptr @mi_malloc_small(i64 noundef 24) #5
  %62 = icmp eq ptr %61, null
  br i1 %62, label %63, label %66

63:                                               ; preds = %._crit_edge
  tail call void @lean_internal_panic_out_of_memory() #6
  unreachable

64:                                               ; preds = %lean_inc.exit34, %57, %59, %60
  %65 = add i64 %.02757, 1
  %.not = icmp eq i64 %65, %2
  br i1 %.not, label %._crit_edge, label %11

66:                                               ; preds = %._crit_edge
  %67 = getelementptr inbounds nuw i8, ptr %61, i64 4
  store i32 1, ptr %61, align 4, !tbaa !4
  store i32 131096, ptr %67, align 4
  %68 = getelementptr inbounds nuw i8, ptr %61, i64 8
  store ptr %.029.lcssa, ptr %68, align 8, !tbaa !10
  %69 = getelementptr inbounds nuw i8, ptr %61, i64 16
  store ptr %.031.lcssa, ptr %69, align 8, !tbaa !10
  ret ptr %61
}